target datalayout = "e-m:e-p270:32:32-p271:32:32-p272:64:64-i64:64-i128:128-f80:128-n8:16:32:64-S128"
target triple = "x86_64-pc-linux-gnu"

%struct.List = type { i32, i32, i32, ptr, [0 x %union.ListCell] }
%union.ListCell = type { ptr }
%struct.TargetEntry = type { %struct.Expr, ptr, i16, ptr, i32, i32, i16, i8 }
%struct.Expr = type { i32 }
%struct.ForBothState = type { ptr, ptr, i32 }

; Function Attrs: inlinehint nounwind uwtable
define internal i32 @list_length(ptr noundef %0) #4 {
  %2 = alloca ptr, align 8
  store ptr %0, ptr %2, align 8
  %3 = load ptr, ptr %2, align 8
  %4 = icmp ne ptr %3, null
  br i1 %4, label %5, label %9

5:                                                ; preds = %1
  %6 = load ptr, ptr %2, align 8
  %7 = getelementptr inbounds nuw %struct.List, ptr %6, i32 0, i32 1
  %8 = load i32, ptr %7, align 4
  br label %10

9:                                                ; preds = %1
  br label %10

10:                                               ; preds = %9, %5
  %11 = phi i32 [ %8, %5 ], [ 0, %9 ]
  ret i32 %11
}

; Function Attrs: nounwind uwtable
define dso_local zeroext i1 @tlist_same_exprs(ptr noundef %0, ptr noundef %1) #0 {
  %3 = alloca i1, align 1
  %4 = alloca ptr, align 8
  %5 = alloca ptr, align 8
  %6 = alloca ptr, align 8
  %7 = alloca ptr, align 8
  %8 = alloca i32, align 4
  %9 = alloca %struct.ForBothState, align 8
  %10 = alloca ptr, align 8
  %11 = alloca ptr, align 8
  store ptr %0, ptr %4, align 8
  store ptr %1, ptr %5, align 8
  call void @llvm.lifetime.start.p0(i64 8, ptr %6) #7
  call void @llvm.lifetime.start.p0(i64 8, ptr %7) #7
  %12 = load ptr, ptr %4, align 8
  %13 = call i32 @list_length(ptr noundef %12)
  %14 = load ptr, ptr %5, align 8
  %15 = call i32 @list_length(ptr noundef %14)
  %16 = icmp ne i32 %13, %15
  br i1 %16, label %17, label %18

17:                                               ; preds = %2
  store i1 false, ptr %3, align 1
  store i32 1, ptr %8, align 4
  br label %104

18:                                               ; preds = %2
  call void @llvm.lifetime.start.p0(i64 24, ptr %9) #7
  %19 = getelementptr inbounds nuw %struct.ForBothState, ptr %9, i32 0, i32 0
  %20 = load ptr, ptr %4, align 8
  store ptr %20, ptr %19, align 8
  %21 = getelementptr inbounds nuw %struct.ForBothState, ptr %9, i32 0, i32 1
  %22 = load ptr, ptr %5, align 8
  store ptr %22, ptr %21, align 8
  %23 = getelementptr inbounds nuw %struct.ForBothState, ptr %9, i32 0, i32 2
  store i32 0, ptr %23, align 8
  %24 = getelementptr i8, ptr %9, i64 20
  call void @llvm.memset.p0.i64(ptr align 4 %24, i8 0, i64 4, i1 false)
  br label %25

25:                                               ; preds = %97, %18
  %26 = getelementptr inbounds nuw %struct.ForBothState, ptr %9, i32 0, i32 0
  %27 = load ptr, ptr %26, align 8
  %28 = icmp ne ptr %27, null
  br i1 %28, label %29, label %46

29:                                               ; preds = %25
  %30 = getelementptr inbounds nuw %struct.ForBothState, ptr %9, i32 0, i32 2
  %31 = load i32, ptr %30, align 8
  %32 = getelementptr inbounds nuw %struct.ForBothState, ptr %9, i32 0, i32 0
  %33 = load ptr, ptr %32, align 8
  %34 = getelementptr inbounds nuw %struct.List, ptr %33, i32 0, i32 1
  %35 = load i32, ptr %34, align 4
  %36 = icmp slt i32 %31, %35
  br i1 %36, label %37, label %46

37:                                               ; preds = %29
  %38 = getelementptr inbounds nuw %struct.ForBothState, ptr %9, i32 0, i32 0
  %39 = load ptr, ptr %38, align 8
  %40 = getelementptr inbounds nuw %struct.List, ptr %39, i32 0, i32 3
  %41 = load ptr, ptr %40, align 8
  %42 = getelementptr inbounds nuw %struct.ForBothState, ptr %9, i32 0, i32 2
  %43 = load i32, ptr %42, align 8
  %44 = sext i32 %43 to i64
  %45 = getelementptr inbounds %union.ListCell, ptr %41, i64 %44
  br label %47

46:                                               ; preds = %29, %25
  br label %47

47:                                               ; preds = %46, %37
  %48 = phi ptr [ %45, %37 ], [ null, %46 ]
  store ptr %48, ptr %6, align 8
  %49 = getelementptr inbounds nuw %struct.ForBothState, ptr %9, i32 0, i32 1
  %50 = load ptr, ptr %49, align 8
  %51 = icmp ne ptr %50, null
  br i1 %51, label %52, label %69

52:                                               ; preds = %47
  %53 = getelementptr inbounds nuw %struct.ForBothState, ptr %9, i32 0, i32 2
  %54 = load i32, ptr %53, align 8
  %55 = getelementptr inbounds nuw %struct.ForBothState, ptr %9, i32 0, i32 1
  %56 = load ptr, ptr %55, align 8
  %57 = getelementptr inbounds nuw %struct.List, ptr %56, i32 0, i32 1
  %58 = load i32, ptr %57, align 4
  %59 = icmp slt i32 %54, %58
  br i1 %59, label %60, label %69

60:                                               ; preds = %52
  %61 = getelementptr inbounds nuw %struct.ForBothState, ptr %9, i32 0, i32 1
  %62 = load ptr, ptr %61, align 8
  %63 = getelementptr inbounds nuw %struct.List, ptr %62, i32 0, i32 3
  %64 = load ptr, ptr %63, align 8
  %65 = getelementptr inbounds nuw %struct.ForBothState, ptr %9, i32 0, i32 2
  %66 = load i32, ptr %65, align 8
  %67 = sext i32 %66 to i64
  %68 = getelementptr inbounds %union.ListCell, ptr %64, i64 %67
  br label %70

69:                                               ; preds = %52, %47
  br label %70

70:                                               ; preds = %69, %60
  %71 = phi ptr [ %68, %60 ], [ null, %69 ]
  store ptr %71, ptr %7, align 8
  %72 = load ptr, ptr %6, align 8
  %73 = icmp ne ptr %72, null
  br i1 %73, label %74, label %77

74:                                               ; preds = %70
  %75 = load ptr, ptr %7, align 8
  %76 = icmp ne ptr %75, null
  br label %77

77:                                               ; preds = %74, %70
  %78 = phi i1 [ false, %70 ], [ %76, %74 ]
  br i1 %78, label %80, label %79

79:                                               ; preds = %77
  store i32 2, ptr %8, align 4
  br label %101

80:                                               ; preds = %77
  call void @llvm.lifetime.start.p0(i64 8, ptr %10) #7
  %81 = load ptr, ptr %6, align 8
  %82 = load ptr, ptr %81, align 8
  store ptr %82, ptr %10, align 8
  call void @llvm.lifetime.start.p0(i64 8, ptr %11) #7
  %83 = load ptr, ptr %7, align 8
  %84 = load ptr, ptr %83, align 8
  store ptr %84, ptr %11, align 8
  %85 = load ptr, ptr %10, align 8
  %86 = getelementptr inbounds nuw %struct.TargetEntry, ptr %85, i32 0, i32 1
  %87 = load ptr, ptr %86, align 8
  %88 = load ptr, ptr %11, align 8
  %89 = getelementptr inbounds nuw %struct.TargetEntry, ptr %88, i32 0, i32 1
  %90 = load ptr, ptr %89, align 8
  %91 = call zeroext i1 @equal(ptr noundef %87, ptr noundef %90)
  br i1 %91, label %93, label %92

92:                                               ; preds = %80
  store i1 false, ptr %3, align 1
  store i32 1, ptr %8, align 4
  br label %94

93:                                               ; preds = %80
  store i32 0, ptr %8, align 4
  br label %94

94:                                               ; preds = %93, %92
  call void @llvm.lifetime.end.p0(i64 8, ptr %11) #7
  call void @llvm.lifetime.end.p0(i64 8, ptr %10) #7
  %95 = load i32, ptr %8, align 4
  switch i32 %95, label %101 [
    i32 0, label %96
  ]

96:                                               ; preds = %94
  br label %97

97:                                               ; preds = %96
  %98 = getelementptr inbounds nuw %struct.ForBothState, ptr %9, i32 0, i32 2
  %99 = load i32, ptr %98, align 8
  %100 = add i32 %99, 1
  store i32 %100, ptr %98, align 8
  br label %25, !llvm.loop !11

101:                                              ; preds = %94, %79
  call void @llvm.lifetime.end.p0(i64 24, ptr %9) #7
  %102 = load i32, ptr %8, align 4
  switch i32 %102, label %104 [
    i32 2, label %103
  ]

103:                                              ; preds = %101
  store i1 true, ptr %3, align 1
  store i32 1, ptr %8, align 4
  br label %104

104:                                              ; preds = %103, %101, %17
  call void @llvm.lifetime.end.p0(i64 8, ptr %7) #7
  call void @llvm.lifetime.end.p0(i64 8, ptr %6) #7
  %105 = load i1, ptr %3, align 1
  ret i1 %105
}