; Function Attrs: nounwind uwtable
define dso_local zeroext i1 @tlist_same_exprs(ptr noundef readonly captures(address_is_null) %0, ptr noundef readonly captures(address_is_null) %1) local_unnamed_addr #0 {
  %.not.i = icmp eq ptr %0, null
  br i1 %.not.i, label %list_length.exit.thread, label %list_length.exit

list_length.exit:                                 ; preds = %2
  %3 = getelementptr inbounds nuw i8, ptr %0, i64 4
  %4 = load i32, ptr %3, align 4
  %.not.i32 = icmp eq ptr %1, null
  br i1 %.not.i32, label %list_length.exit33, label %list_length.exit33.thread

list_length.exit.thread:                          ; preds = %2
  %.not.i3241 = icmp eq ptr %1, null
  br i1 %.not.i3241, label %.thread, label %list_length.exit33.thread.thread

list_length.exit33:                               ; preds = %list_length.exit
  %.not = icmp eq i32 %4, 0
  br label %.thread

list_length.exit33.thread:                        ; preds = %list_length.exit
  %5 = getelementptr inbounds nuw i8, ptr %1, i64 4
  %6 = load i32, ptr %5, align 4
  %.not40 = icmp eq i32 %4, %6
  br i1 %.not40, label %.preheader.split.split.preheader, label %.thread

list_length.exit33.thread.thread:                 ; preds = %list_length.exit.thread
  %7 = getelementptr inbounds nuw i8, ptr %1, i64 4
  %8 = load i32, ptr %7, align 4
  %.not4044 = icmp eq i32 %8, 0
  br label %.thread

.preheader.split.split.preheader:                 ; preds = %list_length.exit33.thread
  %9 = getelementptr inbounds nuw i8, ptr %1, i64 4
  %10 = getelementptr inbounds nuw i8, ptr %0, i64 4
  %11 = getelementptr inbounds nuw i8, ptr %0, i64 16
  %12 = getelementptr inbounds nuw i8, ptr %1, i64 16
  br label %.preheader.split.split

.preheader.split.split:                           ; preds = %.preheader.split.split.preheader, %28
  %indvars.iv = phi i64 [ 0, %.preheader.split.split.preheader ], [ %indvars.iv.next, %28 ]
  %13 = load i32, ptr %10, align 4
  %14 = sext i32 %13 to i64
  %15 = icmp slt i64 %indvars.iv, %14
  br i1 %15, label %16, label %19

16:                                               ; preds = %.preheader.split.split
  %17 = load ptr, ptr %11, align 8
  %18 = getelementptr inbounds nuw %union.ListCell, ptr %17, i64 %indvars.iv
  br label %19

19:                                               ; preds = %.preheader.split.split, %16
  %20 = phi ptr [ %18, %16 ], [ null, %.preheader.split.split ]
  %21 = load i32, ptr %9, align 4
  %22 = sext i32 %21 to i64
  %23 = icmp slt i64 %indvars.iv, %22
  br i1 %23, label %24, label %.thread

24:                                               ; preds = %19
  %25 = load ptr, ptr %12, align 8
  %26 = icmp eq ptr %20, null
  %27 = icmp eq ptr %25, null
  %.not31 = select i1 %26, i1 true, i1 %27
  br i1 %.not31, label %.thread, label %28

28:                                               ; preds = %24
  %29 = getelementptr inbounds nuw %union.ListCell, ptr %25, i64 %indvars.iv
  %30 = load ptr, ptr %20, align 8
  %31 = load ptr, ptr %29, align 8
  %32 = getelementptr inbounds nuw i8, ptr %30, i64 8
  %33 = load ptr, ptr %32, align 8
  %34 = getelementptr inbounds nuw i8, ptr %31, i64 8
  %35 = load ptr, ptr %34, align 8
  %36 = tail call zeroext i1 @equal(ptr noundef %33, ptr noundef %35) #10
  %indvars.iv.next = add nuw nsw i64 %indvars.iv, 1
  br i1 %36, label %.preheader.split.split, label %.thread, !llvm.loop !6

.thread:                                          ; preds = %19, %28, %24, %list_length.exit33.thread.thread, %list_length.exit33, %list_length.exit.thread, %list_length.exit33.thread
  %.0 = phi i1 [ false, %list_length.exit33.thread ], [ true, %list_length.exit.thread ], [ %.not4044, %list_length.exit33.thread.thread ], [ %.not, %list_length.exit33 ], [ true, %19 ], [ false, %28 ], [ true, %24 ]
  ret i1 %.0
}